target datalayout = "e-m:e-p270:32:32-p271:32:32-p272:64:64-i64:64-i128:128-f80:128-n8:16:32:64-S128"
target triple = "x86_64-pc-linux-gnu"

%struct.mcclellan = type { i16, i32, i16, i16, i32, i32, i32, i16, i16, i16, i16, i8, i8, i8, i8, [256 x i8], i32, i32, i32, i32 }
%struct.NFA = type { i32, i32, i8, i8, i8, i8, %union.anon, i32, i32, i32, i32, i32, i32, i32, [20 x i8] }
%union.anon = type { i16 }

; Function Attrs: nounwind uwtable
define hidden signext i8 @nfaExecGough8_initCompressedState(ptr noundef %0, i64 noundef %1, ptr noundef %2, i8 noundef zeroext %3) #0 {
  %5 = alloca i8, align 1
  %6 = alloca ptr, align 8
  %7 = alloca i64, align 8
  %8 = alloca ptr, align 8
  %9 = alloca i8, align 1
  %10 = alloca ptr, align 8
  %11 = alloca i8, align 1
  %12 = alloca i32, align 4
  store ptr %0, ptr %6, align 8
  store i64 %1, ptr %7, align 8
  store ptr %2, ptr %8, align 8
  store i8 %3, ptr %9, align 1
  call void @llvm.lifetime.start.p0(i64 8, ptr %10) #10
  %13 = load ptr, ptr %6, align 8
  %14 = getelementptr inbounds nuw i8, ptr %13, i64 64
  store ptr %14, ptr %10, align 8
  %15 = load ptr, ptr %8, align 8
  %16 = load ptr, ptr %6, align 8
  %17 = getelementptr inbounds nuw %struct.NFA, ptr %16, i32 0, i32 10
  %18 = load i32, ptr %17, align 4
  %19 = zext i32 %18 to i64
  call void @llvm.memset.p0.i64(ptr align 1 %15, i8 0, i64 %19, i1 false)
  call void @llvm.lifetime.start.p0(i64 1, ptr %11) #10
  %20 = load i64, ptr %7, align 8
  %21 = icmp ne i64 %20, 0
  br i1 %21, label %22, label %27

22:                                               ; preds = %4
  %23 = load ptr, ptr %10, align 8
  %24 = getelementptr inbounds nuw %struct.mcclellan, ptr %23, i32 0, i32 3
  %25 = load i16, ptr %24, align 2
  %26 = zext i16 %25 to i32
  br label %32

27:                                               ; preds = %4
  %28 = load ptr, ptr %10, align 8
  %29 = getelementptr inbounds nuw %struct.mcclellan, ptr %28, i32 0, i32 2
  %30 = load i16, ptr %29, align 4
  %31 = zext i16 %30 to i32
  br label %32

32:                                               ; preds = %27, %22
  %33 = phi i32 [ %26, %22 ], [ %31, %27 ]
  %34 = trunc i32 %33 to i8
  store i8 %34, ptr %11, align 1
  %35 = load i8, ptr %11, align 1
  %36 = icmp ne i8 %35, 0
  br i1 %36, label %37, label %40

37:                                               ; preds = %32
  %38 = load i8, ptr %11, align 1
  %39 = load ptr, ptr %8, align 8
  store i8 %38, ptr %39, align 1
  store i8 1, ptr %5, align 1
  store i32 1, ptr %12, align 4
  br label %41

40:                                               ; preds = %32
  store i8 0, ptr %5, align 1
  store i32 1, ptr %12, align 4
  br label %41

41:                                               ; preds = %40, %37
  call void @llvm.lifetime.end.p0(i64 1, ptr %11) #10
  call void @llvm.lifetime.end.p0(i64 8, ptr %10) #10
  %42 = load i8, ptr %5, align 1
  ret i8 %42
}