; Function Attrs: mustprogress nofree norecurse nosync nounwind willreturn memory(argmem: readwrite) uwtable
define hidden signext range(i8 0, 2) i8 @nfaExecGough8_initCompressedState(ptr noundef readonly captures(none) %0, i64 noundef %1, ptr noundef writeonly captures(none) %2, i8 noundef zeroext %3) local_unnamed_addr #3 {
  %5 = getelementptr inbounds nuw i8, ptr %0, i64 28
  %6 = load i32, ptr %5, align 4
  %7 = zext i32 %6 to i64
  tail call void @llvm.memset.p0.i64(ptr align 1 %2, i8 0, i64 %7, i1 false)
  %.not = icmp eq i64 %1, 0
  %.in.in.v = select i1 %.not, i64 72, i64 74
  %.in.in = getelementptr inbounds nuw i8, ptr %0, i64 %.in.in.v
  %.in = load i16, ptr %.in.in, align 2
  %8 = trunc i16 %.in to i8
  %.not10 = icmp eq i8 %8, 0
  br i1 %.not10, label %10, label %9

9:                                                ; preds = %4
  store i8 %8, ptr %2, align 1
  br label %10

10:                                               ; preds = %4, %9
  %.0 = phi i8 [ 1, %9 ], [ 0, %4 ]
  ret i8 %.0
}